ccopy_reg
_reconstructor
p0
(cdedupe.datamodel
DataModel
p1
c__builtin__
object
p2
Ntp3
Rp4
(dp5
S'primary_fields'
p6
(lp7
g0
(cdedupe.variables.string
StringType
p8
g2
Ntp9
Rp10
(dp11
S'predicates'
p12
(lp13
g0
(cdedupe.predicates
StringPredicate
p14
g2
Ntp15
Rp16
(dp17
S'_cached_hash'
p18
I-9139865176647614037
sS'__name__'
p19
S'(wholeFieldPredicate, title)'
p20
sS'func'
p21
cdedupe.predicates
wholeFieldPredicate
p22
sS'field'
p23
S'title'
p24
sbag0
(g14
g2
Ntp25
Rp26
(dp27
g18
I6258416464225437405
sg19
S'(firstTokenPredicate, title)'
p28
sg21
cdedupe.predicates
firstTokenPredicate
p29
sg23
g24
sbag0
(g14
g2
Ntp30
Rp31
(dp32
g18
I9145195917782764920
sg19
S'(commonIntegerPredicate, title)'
p33
sg21
cdedupe.predicates
commonIntegerPredicate
p34
sg23
g24
sbag0
(g14
g2
Ntp35
Rp36
(dp37
g18
I-5898102758542307815
sg19
S'(nearIntegersPredicate, title)'
p38
sg21
cdedupe.predicates
nearIntegersPredicate
p39
sg23
g24
sbag0
(g14
g2
Ntp40
Rp41
(dp42
g18
I-8858446243385179220
sg19
S'(firstIntegerPredicate, title)'
p43
sg21
cdedupe.predicates
firstIntegerPredicate
p44
sg23
g24
sbag0
(g14
g2
Ntp45
Rp46
(dp47
g18
I6091370370403728323
sg19
S'(alphaNumericPredicate, title)'
p48
sg21
cdedupe.predicates
alphaNumericPredicate
p49
sg23
g24
sbag0
(g14
g2
Ntp50
Rp51
(dp52
g18
I8936627121794799648
sg19
S'(sameThreeCharStartPredicate, title)'
p53
sg21
cdedupe.predicates
sameThreeCharStartPredicate
p54
sg23
g24
sbag0
(g14
g2
Ntp55
Rp56
(dp57
g18
I295783475273315479
sg19
S'(sameFiveCharStartPredicate, title)'
p58
sg21
cdedupe.predicates
sameFiveCharStartPredicate
p59
sg23
g24
sbag0
(g14
g2
Ntp60
Rp61
(dp62
g18
I-1509182591972573045
sg19
S'(sameSevenCharStartPredicate, title)'
p63
sg21
cdedupe.predicates
sameSevenCharStartPredicate
p64
sg23
g24
sbag0
(g14
g2
Ntp65
Rp66
(dp67
g18
I330775106218450836
sg19
S'(commonTwoTokens, title)'
p68
sg21
cdedupe.predicates
commonTwoTokens
p69
sg23
g24
sbag0
(g14
g2
Ntp70
Rp71
(dp72
g18
I5795596742062761584
sg19
S'(commonThreeTokens, title)'
p73
sg21
cdedupe.predicates
commonThreeTokens
p74
sg23
g24
sbag0
(g14
g2
Ntp75
Rp76
(dp77
g18
I-536102089841185243
sg19
S'(fingerprint, title)'
p78
sg21
cdedupe.predicates
fingerprint
p79
sg23
g24
sbag0
(g14
g2
Ntp80
Rp81
(dp82
g18
I-7911361162486230895
sg19
S'(oneGramFingerprint, title)'
p83
sg21
cdedupe.predicates
oneGramFingerprint
p84
sg23
g24
sbag0
(g14
g2
Ntp85
Rp86
(dp87
g18
I-1748517918969630549
sg19
S'(twoGramFingerprint, title)'
p88
sg21
cdedupe.predicates
twoGramFingerprint
p89
sg23
g24
sbag0
(g14
g2
Ntp90
Rp91
(dp92
g18
I2135402590818228933
sg19
S'(sortedAcronym, title)'
p93
sg21
cdedupe.predicates
sortedAcronym
p94
sg23
g24
sbag0
(g14
g2
Ntp95
Rp96
(dp97
g18
I-4854818495951440760
sg19
S'(commonFourGram, title)'
p98
sg21
cdedupe.predicates
commonFourGram
p99
sg23
g24
sbag0
(g14
g2
Ntp100
Rp101
(dp102
g18
I7216812736539191943
sg19
S'(commonSixGram, title)'
p103
sg21
cdedupe.predicates
commonSixGram
p104
sg23
g24
sbag0
(g14
g2
Ntp105
Rp106
(dp107
g18
I-1870707011138730787
sg19
S'(tokenFieldPredicate, title)'
p108
sg21
cdedupe.predicates
tokenFieldPredicate
p109
sg23
g24
sbag0
(g14
g2
Ntp110
Rp111
(dp112
g18
I-8673931397617685805
sg19
S'(suffixArray, title)'
p113
sg21
cdedupe.predicates
suffixArray
p114
sg23
g24
sbag0
(g14
g2
Ntp115
Rp116
(dp117
g18
I-5182628619000956371
sg19
S'(doubleMetaphone, title)'
p118
sg21
cdedupe.predicates
doubleMetaphone
p119
sg23
g24
sbag0
(g14
g2
Ntp120
Rp121
(dp122
g18
I4202160370704324778
sg19
S'(metaphoneToken, title)'
p123
sg21
cdedupe.predicates
metaphoneToken
p124
sg23
g24
sbag0
(cdedupe.predicates
TfidfNGramCanopyPredicate
p125
g2
Ntp126
Rp127
(dp128
S'threshold'
p129
F0.2
sg19
S'(0.2, title)'
p130
sg23
g24
sbag0
(g125
g2
Ntp131
Rp132
(dp133
g129
F0.4
sg19
S'(0.4, title)'
p134
sg23
g24
sbag0
(g125
g2
Ntp135
Rp136
(dp137
g129
F0.6
sg19
S'(0.6, title)'
p138
sg23
g24
sbag0
(g125
g2
Ntp139
Rp140
(dp141
g129
F0.8
sg19
S'(0.8, title)'
p142
sg23
g24
sbag0
(cdedupe.predicates
TfidfNGramSearchPredicate
p143
g2
Ntp144
Rp145
(dp146
g129
F0.2
sg19
S'(0.2, title)'
p147
sg23
g24
sbag0
(g143
g2
Ntp148
Rp149
(dp150
g129
F0.4
sg19
S'(0.4, title)'
p151
sg23
g24
sbag0
(g143
g2
Ntp152
Rp153
(dp154
g129
F0.6
sg19
S'(0.6, title)'
p155
sg23
g24
sbag0
(g143
g2
Ntp156
Rp157
(dp158
g129
F0.8
sg19
S'(0.8, title)'
p159
sg23
g24
sbag0
(cdedupe.predicates
TfidfTextCanopyPredicate
p160
g2
Ntp161
Rp162
(dp163
g129
F0.2
sg19
S'(0.2, title)'
p164
sg23
g24
sbag0
(g160
g2
Ntp165
Rp166
(dp167
g129
F0.4
sg19
S'(0.4, title)'
p168
sg23
g24
sbag0
(g160
g2
Ntp169
Rp170
(dp171
g129
F0.6
sg19
S'(0.6, title)'
p172
sg23
g24
sbag0
(g160
g2
Ntp173
Rp174
(dp175
g129
F0.8
sg19
S'(0.8, title)'
p176
sg23
g24
sbag0
(cdedupe.predicates
TfidfTextSearchPredicate
p177
g2
Ntp178
Rp179
(dp180
g129
F0.2
sg19
S'(0.2, title)'
p181
sg23
g24
sbag0
(g177
g2
Ntp182
Rp183
(dp184
g129
F0.4
sg19
S'(0.4, title)'
p185
sg23
g24
sbag0
(g177
g2
Ntp186
Rp187
(dp188
g129
F0.6
sg19
S'(0.6, title)'
p189
sg23
g24
sbag0
(g177
g2
Ntp190
Rp191
(dp192
g129
F0.8
sg19
S'(0.8, title)'
p193
sg23
g24
sbag0
(cdedupe.predicates
ExistsPredicate
p194
g2
Ntp195
Rp196
(dp197
g18
I169796105764859384
sg19
S'(Exists, title)'
p198
sg23
g24
sbag0
(cdedupe.predicates
LevenshteinCanopyPredicate
p199
g2
Ntp200
Rp201
(dp202
g129
I1
sg19
S'(1, title)'
p203
sg23
g24
sbag0
(g199
g2
Ntp204
Rp205
(dp206
g129
I2
sg19
S'(2, title)'
p207
sg23
g24
sbag0
(g199
g2
Ntp208
Rp209
(dp210
g129
I3
sg19
S'(3, title)'
p211
sg23
g24
sbag0
(g199
g2
Ntp212
Rp213
(dp214
g129
I4
sg19
S'(4, title)'
p215
sg23
g24
sbag0
(cdedupe.predicates
LevenshteinSearchPredicate
p216
g2
Ntp217
Rp218
(dp219
g129
I1
sg19
S'(1, title)'
p220
sg23
g24
sbag0
(g216
g2
Ntp221
Rp222
(dp223
g129
I2
sg19
S'(2, title)'
p224
sg23
g24
sbag0
(g216
g2
Ntp225
Rp226
(dp227
g129
I3
sg19
S'(3, title)'
p228
sg23
g24
sbag0
(g216
g2
Ntp229
Rp230
(dp231
g129
I4
sg19
S'(4, title)'
p232
sg23
g24
sbasg23
g24
sS'name'
p233
S'(title: String)'
p234
sS'has_missing'
p235
I01
sS'comparator'
p236
caffinegap.affinegap
normalizedAffineGapDistance
p237
sbag0
(g8
g2
Ntp238
Rp239
(dp240
g12
(lp241
g0
(g14
g2
Ntp242
Rp243
(dp244
g18
I1409153954060689527
sg19
S'(wholeFieldPredicate, authors)'
p245
sg21
g22
sg23
S'authors'
p246
sbag0
(g14
g2
Ntp247
Rp248
(dp249
g18
I-5200818922248128983
sg19
S'(firstTokenPredicate, authors)'
p250
sg21
g29
sg23
g246
sbag0
(g14
g2
Ntp251
Rp252
(dp253
g18
I8896653147678001580
sg19
S'(commonIntegerPredicate, authors)'
p254
sg21
g34
sg23
g246
sbag0
(g14
g2
Ntp255
Rp256
(dp257
g18
I-3937705300917774919
sg19
S'(nearIntegersPredicate, authors)'
p258
sg21
g39
sg23
g246
sbag0
(g14
g2
Ntp259
Rp260
(dp261
g18
I-6097808670282888348
sg19
S'(firstIntegerPredicate, authors)'
p262
sg21
g44
sg23
g246
sbag0
(g14
g2
Ntp263
Rp264
(dp265
g18
I2180117066791433947
sg19
S'(alphaNumericPredicate, authors)'
p266
sg21
g49
sg23
g246
sbag0
(g14
g2
Ntp267
Rp268
(dp269
g18
I5519346414677625524
sg19
S'(sameThreeCharStartPredicate, authors)'
p270
sg21
g54
sg23
g246
sbag0
(g14
g2
Ntp271
Rp272
(dp273
g18
I6032165841070691139
sg19
S'(sameFiveCharStartPredicate, authors)'
p274
sg21
g59
sg23
g246
sbag0
(g14
g2
Ntp275
Rp276
(dp277
g18
I4779138266624785799
sg19
S'(sameSevenCharStartPredicate, authors)'
p278
sg21
g64
sg23
g246
sbag0
(g14
g2
Ntp279
Rp280
(dp281
g18
I-9099925993561355040
sg19
S'(commonTwoTokens, authors)'
p282
sg21
g69
sg23
g246
sbag0
(g14
g2
Ntp283
Rp284
(dp285
g18
I2179533929262474176
sg19
S'(commonThreeTokens, authors)'
p286
sg21
g74
sg23
g246
sbag0
(g14
g2
Ntp287
Rp288
(dp289
g18
I3417547709931736881
sg19
S'(fingerprint, authors)'
p290
sg21
g79
sg23
g246
sbag0
(g14
g2
Ntp291
Rp292
(dp293
g18
I5748553971566773733
sg19
S'(oneGramFingerprint, authors)'
p294
sg21
g84
sg23
g246
sbag0
(g14
g2
Ntp295
Rp296
(dp297
g18
I-7841105452185126689
sg19
S'(twoGramFingerprint, authors)'
p298
sg21
g89
sg23
g246
sbag0
(g14
g2
Ntp299
Rp300
(dp301
g18
I8177912685514566437
sg19
S'(sortedAcronym, authors)'
p302
sg21
g94
sg23
g246
sbag0
(g14
g2
Ntp303
Rp304
(dp305
g18
I5433715016245389724
sg19
S'(commonFourGram, authors)'
p306
sg21
g99
sg23
g246
sbag0
(g14
g2
Ntp307
Rp308
(dp309
g18
I6218159991252406175
sg19
S'(commonSixGram, authors)'
p310
sg21
g104
sg23
g246
sbag0
(g14
g2
Ntp311
Rp312
(dp313
g18
I2120681731413861417
sg19
S'(tokenFieldPredicate, authors)'
p314
sg21
g109
sg23
g246
sbag0
(g14
g2
Ntp315
Rp316
(dp317
g18
I-7237935843847061137
sg19
S'(suffixArray, authors)'
p318
sg21
g114
sg23
g246
sbag0
(g14
g2
Ntp319
Rp320
(dp321
g18
I7586185741893635529
sg19
S'(doubleMetaphone, authors)'
p322
sg21
g119
sg23
g246
sbag0
(g14
g2
Ntp323
Rp324
(dp325
g18
I3775728245119243270
sg19
S'(metaphoneToken, authors)'
p326
sg21
g124
sg23
g246
sbag0
(g125
g2
Ntp327
Rp328
(dp329
g129
F0.2
sg19
S'(0.2, authors)'
p330
sg23
g246
sbag0
(g125
g2
Ntp331
Rp332
(dp333
g129
F0.4
sg19
S'(0.4, authors)'
p334
sg23
g246
sbag0
(g125
g2
Ntp335
Rp336
(dp337
g129
F0.6
sg19
S'(0.6, authors)'
p338
sg23
g246
sbag0
(g125
g2
Ntp339
Rp340
(dp341
g129
F0.8
sg19
S'(0.8, authors)'
p342
sg23
g246
sbag0
(g143
g2
Ntp343
Rp344
(dp345
g129
F0.2
sg19
S'(0.2, authors)'
p346
sg23
g246
sbag0
(g143
g2
Ntp347
Rp348
(dp349
g129
F0.4
sg19
S'(0.4, authors)'
p350
sg23
g246
sbag0
(g143
g2
Ntp351
Rp352
(dp353
g129
F0.6
sg19
S'(0.6, authors)'
p354
sg23
g246
sbag0
(g143
g2
Ntp355
Rp356
(dp357
g129
F0.8
sg19
S'(0.8, authors)'
p358
sg23
g246
sbag0
(g160
g2
Ntp359
Rp360
(dp361
g129
F0.2
sg19
S'(0.2, authors)'
p362
sg23
g246
sbag0
(g160
g2
Ntp363
Rp364
(dp365
g129
F0.4
sg19
S'(0.4, authors)'
p366
sg23
g246
sbag0
(g160
g2
Ntp367
Rp368
(dp369
g129
F0.6
sg19
S'(0.6, authors)'
p370
sg23
g246
sbag0
(g160
g2
Ntp371
Rp372
(dp373
g129
F0.8
sg19
S'(0.8, authors)'
p374
sg23
g246
sbag0
(g177
g2
Ntp375
Rp376
(dp377
g129
F0.2
sg19
S'(0.2, authors)'
p378
sg23
g246
sbag0
(g177
g2
Ntp379
Rp380
(dp381
g129
F0.4
sg19
S'(0.4, authors)'
p382
sg23
g246
sbag0
(g177
g2
Ntp383
Rp384
(dp385
g129
F0.6
sg19
S'(0.6, authors)'
p386
sg23
g246
sbag0
(g177
g2
Ntp387
Rp388
(dp389
g129
F0.8
sg19
S'(0.8, authors)'
p390
sg23
g246
sbag0
(g194
g2
Ntp391
Rp392
(dp393
g18
I-3300057446380190068
sg19
S'(Exists, authors)'
p394
sg23
g246
sbag0
(g199
g2
Ntp395
Rp396
(dp397
g129
I1
sg19
S'(1, authors)'
p398
sg23
g246
sbag0
(g199
g2
Ntp399
Rp400
(dp401
g129
I2
sg19
S'(2, authors)'
p402
sg23
g246
sbag0
(g199
g2
Ntp403
Rp404
(dp405
g129
I3
sg19
S'(3, authors)'
p406
sg23
g246
sbag0
(g199
g2
Ntp407
Rp408
(dp409
g129
I4
sg19
S'(4, authors)'
p410
sg23
g246
sbag0
(g216
g2
Ntp411
Rp412
(dp413
g129
I1
sg19
S'(1, authors)'
p414
sg23
g246
sbag0
(g216
g2
Ntp415
Rp416
(dp417
g129
I2
sg19
S'(2, authors)'
p418
sg23
g246
sbag0
(g216
g2
Ntp419
Rp420
(dp421
g129
I3
sg19
S'(3, authors)'
p422
sg23
g246
sbag0
(g216
g2
Ntp423
Rp424
(dp425
g129
I4
sg19
S'(4, authors)'
p426
sg23
g246
sbasg23
g246
sg233
S'(authors: String)'
p427
sg235
I01
sg236
g237
sbag0
(g8
g2
Ntp428
Rp429
(dp430
g12
(lp431
g0
(g14
g2
Ntp432
Rp433
(dp434
g18
I-4234673896347421242
sg19
S'(wholeFieldPredicate, venue)'
p435
sg21
g22
sg23
S'venue'
p436
sbag0
(g14
g2
Ntp437
Rp438
(dp439
g18
I-5762724349196404280
sg19
S'(firstTokenPredicate, venue)'
p440
sg21
g29
sg23
g436
sbag0
(g14
g2
Ntp441
Rp442
(dp443
g18
I-9030629323938530723
sg19
S'(commonIntegerPredicate, venue)'
p444
sg21
g34
sg23
g436
sbag0
(g14
g2
Ntp445
Rp446
(dp447
g18
I-5886079624669217292
sg19
S'(nearIntegersPredicate, venue)'
p448
sg21
g39
sg23
g436
sbag0
(g14
g2
Ntp449
Rp450
(dp451
g18
I-1082651782179604239
sg19
S'(firstIntegerPredicate, venue)'
p452
sg21
g44
sg23
g436
sbag0
(g14
g2
Ntp453
Rp454
(dp455
g18
I6079077234706634774
sg19
S'(alphaNumericPredicate, venue)'
p456
sg21
g49
sg23
g436
sbag0
(g14
g2
Ntp457
Rp458
(dp459
g18
I7598711056382027749
sg19
S'(sameThreeCharStartPredicate, venue)'
p460
sg21
g54
sg23
g436
sbag0
(g14
g2
Ntp461
Rp462
(dp463
g18
I-8123053112208945462
sg19
S'(sameFiveCharStartPredicate, venue)'
p464
sg21
g59
sg23
g436
sbag0
(g14
g2
Ntp465
Rp466
(dp467
g18
I-4503632110309195738
sg19
S'(sameSevenCharStartPredicate, venue)'
p468
sg21
g64
sg23
g436
sbag0
(g14
g2
Ntp469
Rp470
(dp471
g18
I-8906781758087137311
sg19
S'(commonTwoTokens, venue)'
p472
sg21
g69
sg23
g436
sbag0
(g14
g2
Ntp473
Rp474
(dp475
g18
I5783557607901670349
sg19
S'(commonThreeTokens, venue)'
p476
sg21
g74
sg23
g436
sbag0
(g14
g2
Ntp477
Rp478
(dp479
g18
I3248510049425138704
sg19
S'(fingerprint, venue)'
p480
sg21
g79
sg23
g436
sbag0
(g14
g2
Ntp481
Rp482
(dp483
g18
I1297826046917732580
sg19
S'(oneGramFingerprint, venue)'
p484
sg21
g84
sg23
g436
sbag0
(g14
g2
Ntp485
Rp486
(dp487
g18
I4482756294070245526
sg19
S'(twoGramFingerprint, venue)'
p488
sg21
g89
sg23
g436
sbag0
(g14
g2
Ntp489
Rp490
(dp491
g18
I-4095631620717644776
sg19
S'(sortedAcronym, venue)'
p492
sg21
g94
sg23
g436
sbag0
(g14
g2
Ntp493
Rp494
(dp495
g18
I-1070206356685116803
sg19
S'(commonFourGram, venue)'
p496
sg21
g99
sg23
g436
sbag0
(g14
g2
Ntp497
Rp498
(dp499
g18
I-7445319197904035726
sg19
S'(commonSixGram, venue)'
p500
sg21
g104
sg23
g436
sbag0
(g14
g2
Ntp501
Rp502
(dp503
g18
I4554896249148979144
sg19
S'(tokenFieldPredicate, venue)'
p504
sg21
g109
sg23
g436
sbag0
(g14
g2
Ntp505
Rp506
(dp507
g18
I-8661908263488594498
sg19
S'(suffixArray, venue)'
p508
sg21
g114
sg23
g436
sbag0
(g14
g2
Ntp509
Rp510
(dp511
g18
I63983924645382440
sg19
S'(doubleMetaphone, venue)'
p512
sg21
g119
sg23
g436
sbag0
(g14
g2
Ntp513
Rp514
(dp515
g18
I-2028873840831548937
sg19
S'(metaphoneToken, venue)'
p516
sg21
g124
sg23
g436
sbag0
(g125
g2
Ntp517
Rp518
(dp519
g129
F0.2
sg19
S'(0.2, venue)'
p520
sg23
g436
sbag0
(g125
g2
Ntp521
Rp522
(dp523
g129
F0.4
sg19
S'(0.4, venue)'
p524
sg23
g436
sbag0
(g125
g2
Ntp525
Rp526
(dp527
g129
F0.6
sg19
S'(0.6, venue)'
p528
sg23
g436
sbag0
(g125
g2
Ntp529
Rp530
(dp531
g129
F0.8
sg19
S'(0.8, venue)'
p532
sg23
g436
sbag0
(g143
g2
Ntp533
Rp534
(dp535
g129
F0.2
sg19
S'(0.2, venue)'
p536
sg23
g436
sbag0
(g143
g2
Ntp537
Rp538
(dp539
g129
F0.4
sg19
S'(0.4, venue)'
p540
sg23
g436
sbag0
(g143
g2
Ntp541
Rp542
(dp543
g129
F0.6
sg19
S'(0.6, venue)'
p544
sg23
g436
sbag0
(g143
g2
Ntp545
Rp546
(dp547
g129
F0.8
sg19
S'(0.8, venue)'
p548
sg23
g436
sbag0
(g160
g2
Ntp549
Rp550
(dp551
g129
F0.2
sg19
S'(0.2, venue)'
p552
sg23
g436
sbag0
(g160
g2
Ntp553
Rp554
(dp555
g129
F0.4
sg19
S'(0.4, venue)'
p556
sg23
g436
sbag0
(g160
g2
Ntp557
Rp558
(dp559
g129
F0.6
sg19
S'(0.6, venue)'
p560
sg23
g436
sbag0
(g160
g2
Ntp561
Rp562
(dp563
g129
F0.8
sg19
S'(0.8, venue)'
p564
sg23
g436
sbag0
(g177
g2
Ntp565
Rp566
(dp567
g129
F0.2
sg19
S'(0.2, venue)'
p568
sg23
g436
sbag0
(g177
g2
Ntp569
Rp570
(dp571
g129
F0.4
sg19
S'(0.4, venue)'
p572
sg23
g436
sbag0
(g177
g2
Ntp573
Rp574
(dp575
g129
F0.6
sg19
S'(0.6, venue)'
p576
sg23
g436
sbag0
(g177
g2
Ntp577
Rp578
(dp579
g129
F0.8
sg19
S'(0.8, venue)'
p580
sg23
g436
sbag0
(g194
g2
Ntp581
Rp582
(dp583
g18
I-6592695029849552227
sg19
S'(Exists, venue)'
p584
sg23
g436
sbag0
(g199
g2
Ntp585
Rp586
(dp587
g129
I1
sg19
S'(1, venue)'
p588
sg23
g436
sbag0
(g199
g2
Ntp589
Rp590
(dp591
g129
I2
sg19
S'(2, venue)'
p592
sg23
g436
sbag0
(g199
g2
Ntp593
Rp594
(dp595
g129
I3
sg19
S'(3, venue)'
p596
sg23
g436
sbag0
(g199
g2
Ntp597
Rp598
(dp599
g129
I4
sg19
S'(4, venue)'
p600
sg23
g436
sbag0
(g216
g2
Ntp601
Rp602
(dp603
g129
I1
sg19
S'(1, venue)'
p604
sg23
g436
sbag0
(g216
g2
Ntp605
Rp606
(dp607
g129
I2
sg19
S'(2, venue)'
p608
sg23
g436
sbag0
(g216
g2
Ntp609
Rp610
(dp611
g129
I3
sg19
S'(3, venue)'
p612
sg23
g436
sbag0
(g216
g2
Ntp613
Rp614
(dp615
g129
I4
sg19
S'(4, venue)'
p616
sg23
g436
sbasg23
g436
sg233
S'(venue: String)'
p617
sg235
I01
sg236
g237
sbag0
(cdedupe.variables.date_time
DateTimeType
p618
g2
Ntp619
Rp620
(dp621
g233
S'(year: DateTime)'
p622
sS'dayfirst'
p623
I00
sS'variables'
p624
(S'seconds'
p625
S'days'
p626
S'months'
p627
S'years'
p628
S'full string'
p629
tp630
sg23
S'year'
p631
sS'expanded_size'
p632
I10
sS'higher_vars'
p633
(lp634
g0
(cdedupe.variables.base
DerivedType
p635
g2
Ntp636
Rp637
(dp638
g233
S'(year: Not Missing: Dummy)'
p639
sg235
I00
sbag0
(g635
g2
Ntp640
Rp641
(dp642
g233
S'(seconds: Dummy)'
p643
sg235
I00
sbag0
(g635
g2
Ntp644
Rp645
(dp646
g233
S'(days: Dummy)'
p647
sg235
I00
sbag0
(g635
g2
Ntp648
Rp649
(dp650
g233
S'(months: Dummy)'
p651
sg235
I00
sbag0
(g635
g2
Ntp652
Rp653
(dp654
g233
S'(years: Dummy)'
p655
sg235
I00
sbag0
(g635
g2
Ntp656
Rp657
(dp658
g233
S'(seconds: Derived)'
p659
sg235
I00
sbag0
(g635
g2
Ntp660
Rp661
(dp662
g233
S'(days: Derived)'
p663
sg235
I00
sbag0
(g635
g2
Ntp664
Rp665
(dp666
g233
S'(months: Derived)'
p667
sg235
I00
sbag0
(g635
g2
Ntp668
Rp669
(dp670
g233
S'(years: Derived)'
p671
sg235
I00
sbag0
(g635
g2
Ntp672
Rp673
(dp674
g233
S'(full string: Derived)'
p675
sg235
I00
sbasg235
I01
sg12
(lp676
g0
(cdedupe.predicates
SimplePredicate
p677
g2
Ntp678
Rp679
(dp680
g18
I-5534115766454953
sg19
S'(wholeFieldPredicate, year)'
p681
sg21
g22
sg23
g631
sbag0
(g677
g2
Ntp682
Rp683
(dp684
g18
I-149377138833044271
sg19
S'(yearPredicate, year)'
p685
sg21
cdedupe.variables.datetime_predicates
yearPredicate
p686
sg23
g631
sbag0
(g677
g2
Ntp687
Rp688
(dp689
g18
I7131117202081908083
sg19
S'(monthPredicate, year)'
p690
sg21
cdedupe.variables.datetime_predicates
monthPredicate
p691
sg23
g631
sbag0
(g677
g2
Ntp692
Rp693
(dp694
g18
I-4605200818666385455
sg19
S'(dayPredicate, year)'
p695
sg21
cdedupe.variables.datetime_predicates
dayPredicate
p696
sg23
g631
sbag0
(g677
g2
Ntp697
Rp698
(dp699
g18
I3721440405218387788
sg19
S'(hourPredicate, year)'
p700
sg21
cdedupe.variables.datetime_predicates
hourPredicate
p701
sg23
g631
sbag0
(g677
g2
Ntp702
Rp703
(dp704
g18
I-7986347185966378186
sg19
S'(exclusiveMonthPredicate, year)'
p705
sg21
cdedupe.variables.datetime_predicates
exclusiveMonthPredicate
p706
sg23
g631
sbag0
(g677
g2
Ntp707
Rp708
(dp709
g18
I-8718060314136099872
sg19
S'(exclusiveDayPredicate, year)'
p710
sg21
cdedupe.variables.datetime_predicates
exclusiveDayPredicate
p711
sg23
g631
sbag0
(g677
g2
Ntp712
Rp713
(dp714
g18
I157658556432461540
sg19
S'(threeDayPredicate, year)'
p715
sg21
cdedupe.variables.datetime_predicates
threeDayPredicate
p716
sg23
g631
sbag0
(g677
g2
Ntp717
Rp718
(dp719
g18
I-421625334401429417
sg19
S'(exclusiveHourPredicate, year)'
p720
sg21
cdedupe.variables.datetime_predicates
exclusiveHourPredicate
p721
sg23
g631
sbag0
(g194
g2
Ntp722
Rp723
(dp724
g18
I-5709887696911001598
sg19
S'(Exists, year)'
p725
sg23
g631
sbasS'fuzzy'
p726
I01
sS'yearfirst'
p727
I00
sbasS'_variables'
p728
(lp729
g10
ag239
ag429
ag637
ag641
ag645
ag649
ag653
ag657
ag661
ag665
ag669
ag673
ag0
(cdedupe.variables.base
MissingDataType
p730
g2
Ntp731
Rp732
(dp733
g233
S'((title: String): Not Missing)'
p734
sg235
I00
sbag0
(g730
g2
Ntp735
Rp736
(dp737
g233
S'((authors: String): Not Missing)'
p738
sg235
I00
sbag0
(g730
g2
Ntp739
Rp740
(dp741
g233
S'((venue: String): Not Missing)'
p742
sg235
I00
sbasS'_missing_field_indices'
p743
(lp744
I0
aI1
aI2
asS'_derived_start'
p745
I13
sS'_interaction_indices'
p746
(lp747
sb.ccopy_reg
_reconstructor
p0
(crlr.lr
RegularizedLogisticRegression
p1
c__builtin__
object
p2
Ntp3
Rp4
(dp5
S'alpha'
p6
F0.0001
sS'bias'
p7
cnumpy.core.multiarray
scalar
p8
(cnumpy
dtype
p9
(S'f8'
p10
I0
I1
tp11
Rp12
(I3
S'<'
p13
NNNI-1
I-1
I0
tp14
bS'\x97\xec\x96\xf39~\t@'
p15
tp16
Rp17
sS'num_cores'
p18
I0
sS'cv'
p19
I3
sS'weights'
p20
cnumpy.core.multiarray
_reconstruct
p21
(cnumpy
ndarray
p22
(I0
tp23
S'b'
p24
tp25
Rp26
(I1
(I16
tp27
g12
I00
S'*\xf2\xf6\xcaHK\x03\xc0\xb2\x10\x91\xa3\x9e>\xc2\xbf\x9b\xe9\x1a\x0c_\xf4\xe7\xbf_Y\xd7\xa4\x14\x0e\xe9?\x03\xe3\xfd\xc0\xd6\xd4d\xbf\x03\xe3\xfd\xc0\xd6\xd4d\xbf\x03\xe3\xfd\xc0\xd6\xd4d\xbf_Y\xd7\xa4\x14\x0e\xe9?\x03\xe3\xfd\xc0\xd6\xd4d\xbf\x03\xe3\xfd\xc0\xd6\xd4d\xbf\x03\xe3\xfd\xc0\xd6\xd4d\xbfE\r\xa4\xcc.\x7f\xbf?\x03\xe3\xfd\xc0\xd6\xd4d\xbf\xf0zQ"E\xe2c\xbf\xf0zQ"E\xe2c\xbf\xeb\xd0\xec\t\x82\x9a\xf1?'
p28
tp29
bsb.(ccopy_reg
_reconstructor
p0
(cdedupe.predicates
CompoundPredicate
p1
c__builtin__
tuple
p2
(g0
(cdedupe.predicates
StringPredicate
p3
c__builtin__
object
p4
Ntp5
Rp6
(dp7
S'_cached_hash'
p8
I-1509182591972573045
sS'__name__'
p9
S'(sameSevenCharStartPredicate, title)'
p10
sS'func'
p11
cdedupe.predicates
sameSevenCharStartPredicate
p12
sS'field'
p13
S'title'
p14
sbg0
(cdedupe.predicates
TfidfTextSearchPredicate
p15
g4
Ntp16
Rp17
(dp18
S'threshold'
p19
F0.2
sg9
S'(0.2, title)'
p20
sg13
g14
sbtp21
tp22
Rp23
(dp24
S'count'
p25
F23814.756
sbg0
(g1
g2
(g0
(cdedupe.predicates
LevenshteinSearchPredicate
p26
g4
Ntp27
Rp28
(dp29
g19
I2
sg9
S'(2, authors)'
p30
sg13
S'authors'
p31
sbg0
(g3
g4
Ntp32
Rp33
(dp34
g8
I5795596742062761584
sg9
S'(commonThreeTokens, title)'
p35
sg11
cdedupe.predicates
commonThreeTokens
p36
sg13
g14
sbtp37
tp38
Rp39
(dp40
g25
F1867.824
sbtp41
.